target datalayout = "e-m:e-p270:32:32-p271:32:32-p272:64:64-i64:64-i128:128-f80:128-n8:16:32:64-S128"
target triple = "x86_64-pc-linux-gnu"

%struct.mbedtls_mpi = type { ptr, i16, i16 }

; Function Attrs: nounwind uwtable
define internal i32 @psa_check_rsa_key_byte_aligned(ptr noundef %0) #0 {
  %2 = alloca ptr, align 8
  %3 = alloca %struct.mbedtls_mpi, align 8
  %4 = alloca i32, align 4
  store ptr %0, ptr %2, align 8, !tbaa !15
  call void @llvm.lifetime.start.p0(i64 16, ptr %3) #8
  call void @llvm.lifetime.start.p0(i64 4, ptr %4) #8
  call void @mbedtls_mpi_init(ptr noundef %3)
  %5 = load ptr, ptr %2, align 8, !tbaa !15
  %6 = call i32 @mbedtls_rsa_export(ptr noundef %5, ptr noundef %3, ptr noundef null, ptr noundef null, ptr noundef null, ptr noundef null)
  %7 = call i32 @mbedtls_to_psa_error(i32 noundef %6)
  store i32 %7, ptr %4, align 4, !tbaa !17
  %8 = load i32, ptr %4, align 4, !tbaa !17
  %9 = icmp eq i32 %8, 0
  br i1 %9, label %10, label %16

10:                                               ; preds = %1
  %11 = call i64 @mbedtls_mpi_bitlen(ptr noundef %3)
  %12 = urem i64 %11, 8
  %13 = icmp ne i64 %12, 0
  br i1 %13, label %14, label %15

14:                                               ; preds = %10
  store i32 -134, ptr %4, align 4, !tbaa !17
  br label %15

15:                                               ; preds = %14, %10
  br label %16

16:                                               ; preds = %15, %1
  call void @mbedtls_mpi_free(ptr noundef %3)
  %17 = load i32, ptr %4, align 4, !tbaa !17
  call void @llvm.lifetime.end.p0(i64 4, ptr %4) #8
  call void @llvm.lifetime.end.p0(i64 16, ptr %3) #8
  ret i32 %17
}

; Function Attrs: nounwind uwtable
define hidden i32 @mbedtls_psa_rsa_load_representation(i16 noundef zeroext %0, ptr noundef %1, i64 noundef %2, ptr noundef %3) #0 {
  %5 = alloca i32, align 4
  %6 = alloca i16, align 2
  %7 = alloca ptr, align 8
  %8 = alloca i64, align 8
  %9 = alloca ptr, align 8
  %10 = alloca i32, align 4
  %11 = alloca i64, align 8
  %12 = alloca i32, align 4
  store i16 %0, ptr %6, align 2, !tbaa !3
  store ptr %1, ptr %7, align 8, !tbaa !7
  store i64 %2, ptr %8, align 8, !tbaa !10
  store ptr %3, ptr %9, align 8, !tbaa !12
  call void @llvm.lifetime.start.p0(i64 4, ptr %10) #8
  call void @llvm.lifetime.start.p0(i64 8, ptr %11) #8
  %13 = call noalias ptr @calloc(i64 noundef 1, i64 noundef 232) #9
  %14 = load ptr, ptr %9, align 8, !tbaa !12
  store ptr %13, ptr %14, align 8, !tbaa !15
  %15 = load ptr, ptr %9, align 8, !tbaa !12
  %16 = load ptr, ptr %15, align 8, !tbaa !15
  %17 = icmp eq ptr %16, null
  br i1 %17, label %18, label %19

18:                                               ; preds = %4
  store i32 -141, ptr %5, align 4
  store i32 1, ptr %12, align 4
  br label %62

19:                                               ; preds = %4
  %20 = load ptr, ptr %9, align 8, !tbaa !12
  %21 = load ptr, ptr %20, align 8, !tbaa !15
  call void @mbedtls_rsa_init(ptr noundef %21)
  %22 = load i16, ptr %6, align 2, !tbaa !3
  %23 = zext i16 %22 to i32
  %24 = and i32 %23, 28672
  %25 = icmp eq i32 %24, 28672
  br i1 %25, label %26, label %33

26:                                               ; preds = %19
  %27 = load ptr, ptr %9, align 8, !tbaa !12
  %28 = load ptr, ptr %27, align 8, !tbaa !15
  %29 = load ptr, ptr %7, align 8, !tbaa !7
  %30 = load i64, ptr %8, align 8, !tbaa !10
  %31 = call i32 @mbedtls_rsa_parse_key(ptr noundef %28, ptr noundef %29, i64 noundef %30)
  %32 = call i32 @mbedtls_to_psa_error(i32 noundef %31)
  store i32 %32, ptr %10, align 4, !tbaa !17
  br label %40

33:                                               ; preds = %19
  %34 = load ptr, ptr %9, align 8, !tbaa !12
  %35 = load ptr, ptr %34, align 8, !tbaa !15
  %36 = load ptr, ptr %7, align 8, !tbaa !7
  %37 = load i64, ptr %8, align 8, !tbaa !10
  %38 = call i32 @mbedtls_rsa_parse_pubkey(ptr noundef %35, ptr noundef %36, i64 noundef %37)
  %39 = call i32 @mbedtls_to_psa_error(i32 noundef %38)
  store i32 %39, ptr %10, align 4, !tbaa !17
  br label %40

40:                                               ; preds = %33, %26
  %41 = load i32, ptr %10, align 4, !tbaa !17
  %42 = icmp ne i32 %41, 0
  br i1 %42, label %43, label %44

43:                                               ; preds = %40
  br label %60

44:                                               ; preds = %40
  %45 = load ptr, ptr %9, align 8, !tbaa !12
  %46 = load ptr, ptr %45, align 8, !tbaa !15
  %47 = call i64 @mbedtls_rsa_get_len(ptr noundef %46)
  %48 = mul i64 %47, 8
  store i64 %48, ptr %11, align 8, !tbaa !10
  %49 = load i64, ptr %11, align 8, !tbaa !10
  %50 = icmp ugt i64 %49, 4096
  br i1 %50, label %51, label %52

51:                                               ; preds = %44
  store i32 -134, ptr %10, align 4, !tbaa !17
  br label %60

52:                                               ; preds = %44
  %53 = load ptr, ptr %9, align 8, !tbaa !12
  %54 = load ptr, ptr %53, align 8, !tbaa !15
  %55 = call i32 @psa_check_rsa_key_byte_aligned(ptr noundef %54)
  store i32 %55, ptr %10, align 4, !tbaa !17
  %56 = load i32, ptr %10, align 4, !tbaa !17
  %57 = icmp ne i32 %56, 0
  br i1 %57, label %58, label %59

58:                                               ; preds = %52
  br label %60

59:                                               ; preds = %52
  br label %60

60:                                               ; preds = %59, %58, %51, %43
  %61 = load i32, ptr %10, align 4, !tbaa !17
  store i32 %61, ptr %5, align 4
  store i32 1, ptr %12, align 4
  br label %62

62:                                               ; preds = %60, %18
  call void @llvm.lifetime.end.p0(i64 8, ptr %11) #8
  call void @llvm.lifetime.end.p0(i64 4, ptr %10) #8
  %63 = load i32, ptr %5, align 4
  ret i32 %63
}