; Function Attrs: nounwind uwtable
define hidden i32 @mbedtls_psa_rsa_load_representation(i16 noundef zeroext %0, ptr noundef %1, i64 noundef %2, ptr noundef captures(none) initializes((0, 8)) %3) local_unnamed_addr #0 {
  %5 = alloca %struct.mbedtls_mpi, align 8
  %6 = tail call noalias dereferenceable_or_null(232) ptr @calloc(i64 noundef 1, i64 noundef 232) #8
  store ptr %6, ptr %3, align 8, !tbaa !3
  %7 = icmp eq ptr %6, null
  br i1 %7, label %31, label %8

8:                                                ; preds = %4
  tail call void @mbedtls_rsa_init(ptr noundef nonnull %6) #9
  %9 = and i16 %0, 28672
  %10 = icmp eq i16 %9, 28672
  %11 = load ptr, ptr %3, align 8, !tbaa !3
  br i1 %10, label %12, label %14

12:                                               ; preds = %8
  %13 = tail call i32 @mbedtls_rsa_parse_key(ptr noundef %11, ptr noundef %1, i64 noundef %2) #9
  br label %16

14:                                               ; preds = %8
  %15 = tail call i32 @mbedtls_rsa_parse_pubkey(ptr noundef %11, ptr noundef %1, i64 noundef %2) #9
  br label %16

16:                                               ; preds = %14, %12
  %.sink = phi i32 [ %15, %14 ], [ %13, %12 ]
  %17 = tail call i32 @mbedtls_to_psa_error(i32 noundef %.sink) #9
  %.not = icmp eq i32 %17, 0
  br i1 %.not, label %18, label %31

18:                                               ; preds = %16
  %19 = load ptr, ptr %3, align 8, !tbaa !3
  %20 = tail call i64 @mbedtls_rsa_get_len(ptr noundef %19) #9
  %21 = shl i64 %20, 3
  %22 = icmp ugt i64 %21, 4096
  br i1 %22, label %31, label %23

23:                                               ; preds = %18
  %24 = load ptr, ptr %3, align 8, !tbaa !3
  call void @llvm.lifetime.start.p0(i64 16, ptr nonnull %5) #9
  call void @mbedtls_mpi_init(ptr noundef nonnull %5) #9
  %25 = call i32 @mbedtls_rsa_export(ptr noundef %24, ptr noundef nonnull %5, ptr noundef null, ptr noundef null, ptr noundef null, ptr noundef null) #9
  %26 = call i32 @mbedtls_to_psa_error(i32 noundef %25) #9
  %27 = icmp eq i32 %26, 0
  br i1 %27, label %28, label %psa_check_rsa_key_byte_aligned.exit

28:                                               ; preds = %23
  %29 = call i64 @mbedtls_mpi_bitlen(ptr noundef nonnull %5) #9
  %30 = and i64 %29, 7
  %.not.i = icmp eq i64 %30, 0
  %spec.select.i = select i1 %.not.i, i32 0, i32 -134
  br label %psa_check_rsa_key_byte_aligned.exit

psa_check_rsa_key_byte_aligned.exit:              ; preds = %23, %28
  %.0.i = phi i32 [ %26, %23 ], [ %spec.select.i, %28 ]
  call void @mbedtls_mpi_free(ptr noundef nonnull %5) #9
  call void @llvm.lifetime.end.p0(i64 16, ptr nonnull %5) #9
  br label %31

31:                                               ; preds = %16, %psa_check_rsa_key_byte_aligned.exit, %18, %4
  %.0 = phi i32 [ -141, %4 ], [ %17, %16 ], [ %.0.i, %psa_check_rsa_key_byte_aligned.exit ], [ -134, %18 ]
  ret i32 %.0
}